target datalayout = "e-m:e-p270:32:32-p271:32:32-p272:64:64-i64:64-i128:128-f80:128-n8:16:32:64-S128"
target triple = "x86_64-pc-linux-gnu"

%"struct.(anonymous namespace)::SynthesizeIvarChunk" = type { i64, ptr }
%"struct.__gnu_cxx::__ops::_Iter_less_iter" = type { i8 }
%"struct.__gnu_cxx::__ops::_Val_less_iter" = type { i8 }

; Function Attrs: mustprogress nounwind uwtable
define internal noundef ptr @_ZNSt20__copy_move_backwardILb1ELb1ESt26random_access_iterator_tagE13__copy_move_bIN12_GLOBAL__N_119SynthesizeIvarChunkEEEPT_PKS5_S8_S6_(ptr noundef %0, ptr noundef %1, ptr noundef %2) #0 align 2 {
  %4 = alloca ptr, align 8
  %5 = alloca ptr, align 8
  %6 = alloca ptr, align 8
  %7 = alloca i64, align 8
  store ptr %0, ptr %4, align 8
  store ptr %1, ptr %5, align 8
  store ptr %2, ptr %6, align 8
  %8 = load ptr, ptr %5, align 8
  %9 = load ptr, ptr %4, align 8
  %10 = ptrtoint ptr %8 to i64
  %11 = ptrtoint ptr %9 to i64
  %12 = sub i64 %10, %11
  %13 = sdiv exact i64 %12, 16
  store i64 %13, ptr %7, align 8
  %14 = load i64, ptr %7, align 8
  %15 = icmp ne i64 %14, 0
  br i1 %15, label %16, label %24

16:                                               ; preds = %3
  %17 = load ptr, ptr %6, align 8
  %18 = load i64, ptr %7, align 8
  %19 = sub i64 0, %18
  %20 = getelementptr inbounds %"struct.(anonymous namespace)::SynthesizeIvarChunk", ptr %17, i64 %19
  %21 = load ptr, ptr %4, align 8
  %22 = load i64, ptr %7, align 8
  %23 = mul i64 16, %22
  call void @llvm.memmove.p0.p0.i64(ptr align 8 %20, ptr align 8 %21, i64 %23, i1 false)
  br label %24

24:                                               ; preds = %16, %3
  %25 = load ptr, ptr %6, align 8
  %26 = load i64, ptr %7, align 8
  %27 = sub i64 0, %26
  %28 = getelementptr inbounds %"struct.(anonymous namespace)::SynthesizeIvarChunk", ptr %25, i64 %27
  ret ptr %28
}

; Function Attrs: mustprogress nounwind uwtable
define internal noundef ptr @_ZSt23__copy_move_backward_a2ILb1EPN12_GLOBAL__N_119SynthesizeIvarChunkES2_ET1_T0_S4_S3_(ptr noundef %0, ptr noundef %1, ptr noundef %2) #0 {
  %4 = alloca ptr, align 8
  %5 = alloca ptr, align 8
  %6 = alloca ptr, align 8
  store ptr %0, ptr %4, align 8
  store ptr %1, ptr %5, align 8
  store ptr %2, ptr %6, align 8
  %7 = load ptr, ptr %4, align 8
  %8 = load ptr, ptr %5, align 8
  %9 = load ptr, ptr %6, align 8
  %10 = call noundef ptr @_ZNSt20__copy_move_backwardILb1ELb1ESt26random_access_iterator_tagE13__copy_move_bIN12_GLOBAL__N_119SynthesizeIvarChunkEEEPT_PKS5_S8_S6_(ptr noundef %7, ptr noundef %8, ptr noundef %9)
  ret ptr %10
}

; Function Attrs: mustprogress nounwind uwtable
define internal noundef ptr @_ZSt12__niter_wrapIPN12_GLOBAL__N_119SynthesizeIvarChunkEET_RKS3_S3_(ptr noundef nonnull align 8 dereferenceable(8) %0, ptr noundef %1) #0 {
  %3 = alloca ptr, align 8
  %4 = alloca ptr, align 8
  store ptr %0, ptr %3, align 8
  store ptr %1, ptr %4, align 8
  %5 = load ptr, ptr %4, align 8
  ret ptr %5
}

; Function Attrs: mustprogress nounwind uwtable
define internal noundef ptr @_ZSt23__copy_move_backward_a1ILb1EPN12_GLOBAL__N_119SynthesizeIvarChunkES2_ET1_T0_S4_S3_(ptr noundef %0, ptr noundef %1, ptr noundef %2) #0 {
  %4 = alloca ptr, align 8
  %5 = alloca ptr, align 8
  %6 = alloca ptr, align 8
  store ptr %0, ptr %4, align 8
  store ptr %1, ptr %5, align 8
  store ptr %2, ptr %6, align 8
  %7 = load ptr, ptr %4, align 8
  %8 = load ptr, ptr %5, align 8
  %9 = load ptr, ptr %6, align 8
  %10 = call noundef ptr @_ZSt23__copy_move_backward_a2ILb1EPN12_GLOBAL__N_119SynthesizeIvarChunkES2_ET1_T0_S4_S3_(ptr noundef %7, ptr noundef %8, ptr noundef %9)
  ret ptr %10
}

; Function Attrs: mustprogress nounwind uwtable
define internal noundef ptr @_ZSt12__niter_baseIPN12_GLOBAL__N_119SynthesizeIvarChunkEET_S3_(ptr noundef %0) #0 {
  %2 = alloca ptr, align 8
  store ptr %0, ptr %2, align 8
  %3 = load ptr, ptr %2, align 8
  ret ptr %3
}

; Function Attrs: mustprogress nounwind uwtable
define internal noundef zeroext i1 @_ZNK9__gnu_cxx5__ops14_Val_less_iterclIN12_GLOBAL__N_119SynthesizeIvarChunkEPS4_EEbRT_T0_(ptr noundef nonnull align 1 dereferenceable(1) %0, ptr noundef nonnull align 8 dereferenceable(16) %1, ptr noundef %2) #0 align 2 {
  %4 = alloca ptr, align 8
  %5 = alloca ptr, align 8
  %6 = alloca ptr, align 8
  store ptr %0, ptr %4, align 8
  store ptr %1, ptr %5, align 8
  store ptr %2, ptr %6, align 8
  %7 = load ptr, ptr %5, align 8
  %8 = load ptr, ptr %6, align 8
  %9 = call noundef zeroext i1 @_ZN12_GLOBAL__N_1ltERKNS_19SynthesizeIvarChunkES2_(ptr noundef nonnull align 8 dereferenceable(16) %7, ptr noundef nonnull align 8 dereferenceable(16) %8)
  ret i1 %9
}

; Function Attrs: mustprogress nounwind uwtable
define internal noundef ptr @_ZSt22__copy_move_backward_aILb1EPN12_GLOBAL__N_119SynthesizeIvarChunkES2_ET1_T0_S4_S3_(ptr noundef %0, ptr noundef %1, ptr noundef %2) #0 {
  %4 = alloca ptr, align 8
  %5 = alloca ptr, align 8
  %6 = alloca ptr, align 8
  store ptr %0, ptr %4, align 8
  store ptr %1, ptr %5, align 8
  store ptr %2, ptr %6, align 8
  %7 = load ptr, ptr %4, align 8
  %8 = call noundef ptr @_ZSt12__niter_baseIPN12_GLOBAL__N_119SynthesizeIvarChunkEET_S3_(ptr noundef %7) #13
  %9 = load ptr, ptr %5, align 8
  %10 = call noundef ptr @_ZSt12__niter_baseIPN12_GLOBAL__N_119SynthesizeIvarChunkEET_S3_(ptr noundef %9) #13
  %11 = load ptr, ptr %6, align 8
  %12 = call noundef ptr @_ZSt12__niter_baseIPN12_GLOBAL__N_119SynthesizeIvarChunkEET_S3_(ptr noundef %11) #13
  %13 = call noundef ptr @_ZSt23__copy_move_backward_a1ILb1EPN12_GLOBAL__N_119SynthesizeIvarChunkES2_ET1_T0_S4_S3_(ptr noundef %8, ptr noundef %10, ptr noundef %12)
  %14 = call noundef ptr @_ZSt12__niter_wrapIPN12_GLOBAL__N_119SynthesizeIvarChunkEET_RKS3_S3_(ptr noundef nonnull align 8 dereferenceable(8) %6, ptr noundef %13)
  ret ptr %14
}

; Function Attrs: mustprogress nounwind uwtable
define internal noundef ptr @_ZSt12__miter_baseIPN12_GLOBAL__N_119SynthesizeIvarChunkEET_S3_(ptr noundef %0) #0 {
  %2 = alloca ptr, align 8
  store ptr %0, ptr %2, align 8
  %3 = load ptr, ptr %2, align 8
  ret ptr %3
}

; Function Attrs: mustprogress nounwind uwtable
define internal noundef zeroext i1 @_ZN12_GLOBAL__N_1ltERKNS_19SynthesizeIvarChunkES2_(ptr noundef nonnull align 8 dereferenceable(16) %0, ptr noundef nonnull align 8 dereferenceable(16) %1) #0 {
  %3 = alloca ptr, align 8
  %4 = alloca ptr, align 8
  store ptr %0, ptr %3, align 8
  store ptr %1, ptr %4, align 8
  %5 = load ptr, ptr %3, align 8
  %6 = getelementptr inbounds nuw %"struct.(anonymous namespace)::SynthesizeIvarChunk", ptr %5, i32 0, i32 0
  %7 = load i64, ptr %6, align 8
  %8 = load ptr, ptr %4, align 8
  %9 = getelementptr inbounds nuw %"struct.(anonymous namespace)::SynthesizeIvarChunk", ptr %8, i32 0, i32 0
  %10 = load i64, ptr %9, align 8
  %11 = icmp ult i64 %7, %10
  ret i1 %11
}

; Function Attrs: mustprogress nounwind uwtable
define internal void @_ZSt25__unguarded_linear_insertIPN12_GLOBAL__N_119SynthesizeIvarChunkEN9__gnu_cxx5__ops14_Val_less_iterEEvT_T0_(ptr noundef %0) #0 {
  %2 = alloca %"struct.__gnu_cxx::__ops::_Val_less_iter", align 1
  %3 = alloca ptr, align 8
  %4 = alloca %"struct.(anonymous namespace)::SynthesizeIvarChunk", align 8
  %5 = alloca ptr, align 8
  store ptr %0, ptr %3, align 8
  %6 = load ptr, ptr %3, align 8
  call void @llvm.memcpy.p0.p0.i64(ptr align 8 %4, ptr align 8 %6, i64 16, i1 false)
  %7 = load ptr, ptr %3, align 8
  store ptr %7, ptr %5, align 8
  %8 = load ptr, ptr %5, align 8
  %9 = getelementptr inbounds %"struct.(anonymous namespace)::SynthesizeIvarChunk", ptr %8, i32 -1
  store ptr %9, ptr %5, align 8
  br label %10

10:                                               ; preds = %13, %1
  %11 = load ptr, ptr %5, align 8
  %12 = call noundef zeroext i1 @_ZNK9__gnu_cxx5__ops14_Val_less_iterclIN12_GLOBAL__N_119SynthesizeIvarChunkEPS4_EEbRT_T0_(ptr noundef nonnull align 1 dereferenceable(1) %2, ptr noundef nonnull align 8 dereferenceable(16) %4, ptr noundef %11)
  br i1 %12, label %13, label %19

13:                                               ; preds = %10
  %14 = load ptr, ptr %5, align 8
  %15 = load ptr, ptr %3, align 8
  call void @llvm.memcpy.p0.p0.i64(ptr align 8 %15, ptr align 8 %14, i64 16, i1 false)
  %16 = load ptr, ptr %5, align 8
  store ptr %16, ptr %3, align 8
  %17 = load ptr, ptr %5, align 8
  %18 = getelementptr inbounds %"struct.(anonymous namespace)::SynthesizeIvarChunk", ptr %17, i32 -1
  store ptr %18, ptr %5, align 8
  br label %10, !llvm.loop !58

19:                                               ; preds = %10
  %20 = load ptr, ptr %3, align 8
  call void @llvm.memcpy.p0.p0.i64(ptr align 8 %20, ptr align 8 %4, i64 16, i1 false)
  ret void
}

; Function Attrs: mustprogress nounwind uwtable
define linkonce_odr hidden void @_ZN9__gnu_cxx5__ops15__val_comp_iterENS0_15_Iter_less_iterE() #0 comdat {
  ret void
}

; Function Attrs: mustprogress nounwind uwtable
define internal noundef ptr @_ZSt13move_backwardIPN12_GLOBAL__N_119SynthesizeIvarChunkES2_ET0_T_S4_S3_(ptr noundef %0, ptr noundef %1, ptr noundef %2) #0 {
  %4 = alloca ptr, align 8
  %5 = alloca ptr, align 8
  %6 = alloca ptr, align 8
  store ptr %0, ptr %4, align 8
  store ptr %1, ptr %5, align 8
  store ptr %2, ptr %6, align 8
  %7 = load ptr, ptr %4, align 8
  %8 = call noundef ptr @_ZSt12__miter_baseIPN12_GLOBAL__N_119SynthesizeIvarChunkEET_S3_(ptr noundef %7)
  %9 = load ptr, ptr %5, align 8
  %10 = call noundef ptr @_ZSt12__miter_baseIPN12_GLOBAL__N_119SynthesizeIvarChunkEET_S3_(ptr noundef %9)
  %11 = load ptr, ptr %6, align 8
  %12 = call noundef ptr @_ZSt22__copy_move_backward_aILb1EPN12_GLOBAL__N_119SynthesizeIvarChunkES2_ET1_T0_S4_S3_(ptr noundef %8, ptr noundef %10, ptr noundef %11)
  ret ptr %12
}

; Function Attrs: mustprogress nounwind uwtable
define internal noundef zeroext i1 @_ZNK9__gnu_cxx5__ops15_Iter_less_iterclIPN12_GLOBAL__N_119SynthesizeIvarChunkES5_EEbT_T0_(ptr noundef nonnull align 1 dereferenceable(1) %0, ptr noundef %1, ptr noundef %2) #0 align 2 {
  %4 = alloca ptr, align 8
  %5 = alloca ptr, align 8
  %6 = alloca ptr, align 8
  store ptr %0, ptr %4, align 8
  store ptr %1, ptr %5, align 8
  store ptr %2, ptr %6, align 8
  %7 = load ptr, ptr %5, align 8
  %8 = load ptr, ptr %6, align 8
  %9 = call noundef zeroext i1 @_ZN12_GLOBAL__N_1ltERKNS_19SynthesizeIvarChunkES2_(ptr noundef nonnull align 8 dereferenceable(16) %7, ptr noundef nonnull align 8 dereferenceable(16) %8)
  ret i1 %9
}

; Function Attrs: mustprogress nounwind uwtable
define internal void @_ZSt16__insertion_sortIPN12_GLOBAL__N_119SynthesizeIvarChunkEN9__gnu_cxx5__ops15_Iter_less_iterEEvT_S6_T0_(ptr noundef %0, ptr noundef %1) #0 {
  %3 = alloca %"struct.__gnu_cxx::__ops::_Iter_less_iter", align 1
  %4 = alloca ptr, align 8
  %5 = alloca ptr, align 8
  %6 = alloca ptr, align 8
  %7 = alloca %"struct.(anonymous namespace)::SynthesizeIvarChunk", align 8
  store ptr %0, ptr %4, align 8
  store ptr %1, ptr %5, align 8
  %8 = load ptr, ptr %4, align 8
  %9 = load ptr, ptr %5, align 8
  %10 = icmp eq ptr %8, %9
  br i1 %10, label %11, label %12

11:                                               ; preds = %2
  br label %37

12:                                               ; preds = %2
  %13 = load ptr, ptr %4, align 8
  %14 = getelementptr inbounds %"struct.(anonymous namespace)::SynthesizeIvarChunk", ptr %13, i64 1
  store ptr %14, ptr %6, align 8
  br label %15

15:                                               ; preds = %34, %12
  %16 = load ptr, ptr %6, align 8
  %17 = load ptr, ptr %5, align 8
  %18 = icmp ne ptr %16, %17
  br i1 %18, label %19, label %37

19:                                               ; preds = %15
  %20 = load ptr, ptr %6, align 8
  %21 = load ptr, ptr %4, align 8
  %22 = call noundef zeroext i1 @_ZNK9__gnu_cxx5__ops15_Iter_less_iterclIPN12_GLOBAL__N_119SynthesizeIvarChunkES5_EEbT_T0_(ptr noundef nonnull align 1 dereferenceable(1) %3, ptr noundef %20, ptr noundef %21)
  br i1 %22, label %23, label %31

23:                                               ; preds = %19
  %24 = load ptr, ptr %6, align 8
  call void @llvm.memcpy.p0.p0.i64(ptr align 8 %7, ptr align 8 %24, i64 16, i1 false)
  %25 = load ptr, ptr %4, align 8
  %26 = load ptr, ptr %6, align 8
  %27 = load ptr, ptr %6, align 8
  %28 = getelementptr inbounds %"struct.(anonymous namespace)::SynthesizeIvarChunk", ptr %27, i64 1
  %29 = call noundef ptr @_ZSt13move_backwardIPN12_GLOBAL__N_119SynthesizeIvarChunkES2_ET0_T_S4_S3_(ptr noundef %25, ptr noundef %26, ptr noundef %28)
  %30 = load ptr, ptr %4, align 8
  call void @llvm.memcpy.p0.p0.i64(ptr align 8 %30, ptr align 8 %7, i64 16, i1 false)
  br label %33

31:                                               ; preds = %19
  %32 = load ptr, ptr %6, align 8
  call void @_ZN9__gnu_cxx5__ops15__val_comp_iterENS0_15_Iter_less_iterE()
  call void @_ZSt25__unguarded_linear_insertIPN12_GLOBAL__N_119SynthesizeIvarChunkEN9__gnu_cxx5__ops14_Val_less_iterEEvT_T0_(ptr noundef %32)
  br label %33

33:                                               ; preds = %31, %23
  br label %34

34:                                               ; preds = %33
  %35 = load ptr, ptr %6, align 8
  %36 = getelementptr inbounds %"struct.(anonymous namespace)::SynthesizeIvarChunk", ptr %35, i32 1
  store ptr %36, ptr %6, align 8
  br label %15, !llvm.loop !57

37:                                               ; preds = %15, %11
  ret void
}

; Function Attrs: mustprogress nounwind uwtable
define internal void @_ZSt21__inplace_stable_sortIPN12_GLOBAL__N_119SynthesizeIvarChunkEN9__gnu_cxx5__ops15_Iter_less_iterEEvT_S6_T0_(ptr noundef %0, ptr noundef %1) #0 {
  %3 = alloca ptr, align 8
  %4 = alloca ptr, align 8
  %5 = alloca ptr, align 8
  store ptr %0, ptr %3, align 8
  store ptr %1, ptr %4, align 8
  %6 = load ptr, ptr %4, align 8
  %7 = load ptr, ptr %3, align 8
  %8 = ptrtoint ptr %6 to i64
  %9 = ptrtoint ptr %7 to i64
  %10 = sub i64 %8, %9
  %11 = sdiv exact i64 %10, 16
  %12 = icmp slt i64 %11, 15
  br i1 %12, label %13, label %16

13:                                               ; preds = %2
  %14 = load ptr, ptr %3, align 8
  %15 = load ptr, ptr %4, align 8
  call void @_ZSt16__insertion_sortIPN12_GLOBAL__N_119SynthesizeIvarChunkEN9__gnu_cxx5__ops15_Iter_less_iterEEvT_S6_T0_(ptr noundef %14, ptr noundef %15)
  br label %45

16:                                               ; preds = %2
  %17 = load ptr, ptr %3, align 8
  %18 = load ptr, ptr %4, align 8
  %19 = load ptr, ptr %3, align 8
  %20 = ptrtoint ptr %18 to i64
  %21 = ptrtoint ptr %19 to i64
  %22 = sub i64 %20, %21
  %23 = sdiv exact i64 %22, 16
  %24 = sdiv i64 %23, 2
  %25 = getelementptr inbounds %"struct.(anonymous namespace)::SynthesizeIvarChunk", ptr %17, i64 %24
  store ptr %25, ptr %5, align 8
  %26 = load ptr, ptr %3, align 8
  %27 = load ptr, ptr %5, align 8
  call void @_ZSt21__inplace_stable_sortIPN12_GLOBAL__N_119SynthesizeIvarChunkEN9__gnu_cxx5__ops15_Iter_less_iterEEvT_S6_T0_(ptr noundef %26, ptr noundef %27)
  %28 = load ptr, ptr %5, align 8
  %29 = load ptr, ptr %4, align 8
  call void @_ZSt21__inplace_stable_sortIPN12_GLOBAL__N_119SynthesizeIvarChunkEN9__gnu_cxx5__ops15_Iter_less_iterEEvT_S6_T0_(ptr noundef %28, ptr noundef %29)
  %30 = load ptr, ptr %3, align 8
  %31 = load ptr, ptr %5, align 8
  %32 = load ptr, ptr %4, align 8
  %33 = load ptr, ptr %5, align 8
  %34 = load ptr, ptr %3, align 8
  %35 = ptrtoint ptr %33 to i64
  %36 = ptrtoint ptr %34 to i64
  %37 = sub i64 %35, %36
  %38 = sdiv exact i64 %37, 16
  %39 = load ptr, ptr %4, align 8
  %40 = load ptr, ptr %5, align 8
  %41 = ptrtoint ptr %39 to i64
  %42 = ptrtoint ptr %40 to i64
  %43 = sub i64 %41, %42
  %44 = sdiv exact i64 %43, 16
  call void @_ZSt22__merge_without_bufferIPN12_GLOBAL__N_119SynthesizeIvarChunkElN9__gnu_cxx5__ops15_Iter_less_iterEEvT_S6_S6_T0_S7_T1_(ptr noundef %30, ptr noundef %31, ptr noundef %32, i64 noundef %38, i64 noundef %44)
  br label %45

45:                                               ; preds = %16, %13
  ret void
}