; Function Attrs: mustprogress nofree nosync nounwind memory(readwrite, inaccessiblemem: none) uwtable
define internal fastcc void @_ZSt21__inplace_stable_sortIPN12_GLOBAL__N_119SynthesizeIvarChunkEN9__gnu_cxx5__ops15_Iter_less_iterEEvT_S6_T0_(ptr noundef %0, ptr noundef %1) unnamed_addr #15 {
  %3 = alloca %"struct.(anonymous namespace)::SynthesizeIvarChunk", align 8
  %4 = ptrtoint ptr %1 to i64
  %5 = ptrtoint ptr %0 to i64
  %6 = sub i64 %4, %5
  %7 = ashr exact i64 %6, 4
  %8 = icmp slt i64 %7, 15
  br i1 %8, label %9, label %22

9:                                                ; preds = %2
  call void @llvm.lifetime.start.p0(i64 16, ptr nonnull %3)
  %10 = icmp eq ptr %0, %1
  %.016.i = getelementptr inbounds i8, ptr %0, i64 16
  %.not17.i = icmp eq ptr %.016.i, %1
  %or.cond = select i1 %10, i1 true, i1 %.not17.i
  br i1 %or.cond, label %_ZSt16__insertion_sortIPN12_GLOBAL__N_119SynthesizeIvarChunkEN9__gnu_cxx5__ops15_Iter_less_iterEEvT_S6_T0_.exit, label %.lr.ph.i

.lr.ph.i:                                         ; preds = %9, %21
  %.019.i = phi ptr [ %.0.i, %21 ], [ %.016.i, %9 ]
  %.pn18.i = phi ptr [ %.019.i, %21 ], [ %0, %9 ]
  %.0.val.i = load i64, ptr %.019.i, align 8
  %.val.i = load i64, ptr %0, align 8
  %11 = icmp ult i64 %.0.val.i, %.val.i
  br i1 %11, label %12, label %18

12:                                               ; preds = %.lr.ph.i
  call void @llvm.memcpy.p0.p0.i64(ptr noundef nonnull align 8 dereferenceable(16) %3, ptr noundef nonnull align 8 dereferenceable(16) %.019.i, i64 16, i1 false)
  %13 = getelementptr inbounds i8, ptr %.pn18.i, i64 32
  %14 = ptrtoint ptr %.019.i to i64
  %15 = sub i64 %14, %5
  %16 = ashr exact i64 %15, 4
  %.pre.i.i.i.i.i.i = sub nsw i64 0, %16
  %17 = getelementptr inbounds %"struct.(anonymous namespace)::SynthesizeIvarChunk", ptr %13, i64 %.pre.i.i.i.i.i.i
  tail call void @llvm.memmove.p0.p0.i64(ptr noundef nonnull align 8 dereferenceable(1) %17, ptr noundef nonnull align 8 dereferenceable(1) %0, i64 %15, i1 false)
  call void @llvm.memcpy.p0.p0.i64(ptr noundef nonnull align 8 dereferenceable(16) %0, ptr noundef nonnull align 8 dereferenceable(16) %3, i64 16, i1 false)
  br label %21

18:                                               ; preds = %.lr.ph.i
  %.sroa.3.0..sroa_idx.i.i = getelementptr inbounds i8, ptr %.pn18.i, i64 24
  %.sroa.3.0.copyload.i.i = load ptr, ptr %.sroa.3.0..sroa_idx.i.i, align 8
  %.0.val13.i.i = load i64, ptr %.pn18.i, align 8
  %19 = icmp ult i64 %.0.val.i, %.0.val13.i.i
  br i1 %19, label %.lr.ph.i.i, label %_ZSt25__unguarded_linear_insertIPN12_GLOBAL__N_119SynthesizeIvarChunkEN9__gnu_cxx5__ops14_Val_less_iterEEvT_T0_.exit.i

.lr.ph.i.i:                                       ; preds = %18, %.lr.ph.i.i
  %.015.i.i = phi ptr [ %.0.i.i, %.lr.ph.i.i ], [ %.pn18.i, %18 ]
  %.0914.i.i = phi ptr [ %.015.i.i, %.lr.ph.i.i ], [ %.019.i, %18 ]
  tail call void @llvm.memcpy.p0.p0.i64(ptr noundef nonnull align 8 dereferenceable(16) %.0914.i.i, ptr noundef nonnull align 8 dereferenceable(16) %.015.i.i, i64 16, i1 false)
  %.0.i.i = getelementptr inbounds i8, ptr %.015.i.i, i64 -16
  %.0.val.i.i = load i64, ptr %.0.i.i, align 8
  %20 = icmp ult i64 %.0.val.i, %.0.val.i.i
  br i1 %20, label %.lr.ph.i.i, label %_ZSt25__unguarded_linear_insertIPN12_GLOBAL__N_119SynthesizeIvarChunkEN9__gnu_cxx5__ops14_Val_less_iterEEvT_T0_.exit.i, !llvm.loop !82

_ZSt25__unguarded_linear_insertIPN12_GLOBAL__N_119SynthesizeIvarChunkEN9__gnu_cxx5__ops14_Val_less_iterEEvT_T0_.exit.i: ; preds = %.lr.ph.i.i, %18
  %.09.lcssa.i.i = phi ptr [ %.019.i, %18 ], [ %.015.i.i, %.lr.ph.i.i ]
  store i64 %.0.val.i, ptr %.09.lcssa.i.i, align 8
  %.sroa.3.0..09.sroa_idx.i.i = getelementptr inbounds i8, ptr %.09.lcssa.i.i, i64 8
  store ptr %.sroa.3.0.copyload.i.i, ptr %.sroa.3.0..09.sroa_idx.i.i, align 8
  br label %21

21:                                               ; preds = %_ZSt25__unguarded_linear_insertIPN12_GLOBAL__N_119SynthesizeIvarChunkEN9__gnu_cxx5__ops14_Val_less_iterEEvT_T0_.exit.i, %12
  %.0.i = getelementptr inbounds i8, ptr %.019.i, i64 16
  %.not.i = icmp eq ptr %.0.i, %1
  br i1 %.not.i, label %_ZSt16__insertion_sortIPN12_GLOBAL__N_119SynthesizeIvarChunkEN9__gnu_cxx5__ops15_Iter_less_iterEEvT_S6_T0_.exit, label %.lr.ph.i, !llvm.loop !83

_ZSt16__insertion_sortIPN12_GLOBAL__N_119SynthesizeIvarChunkEN9__gnu_cxx5__ops15_Iter_less_iterEEvT_S6_T0_.exit: ; preds = %21, %9
  call void @llvm.lifetime.end.p0(i64 16, ptr nonnull %3)
  br label %common.ret18

common.ret18:                                     ; preds = %22, %_ZSt16__insertion_sortIPN12_GLOBAL__N_119SynthesizeIvarChunkEN9__gnu_cxx5__ops15_Iter_less_iterEEvT_S6_T0_.exit
  ret void

22:                                               ; preds = %2
  %23 = lshr i64 %7, 1
  %24 = getelementptr inbounds %"struct.(anonymous namespace)::SynthesizeIvarChunk", ptr %0, i64 %23
  tail call fastcc void @_ZSt21__inplace_stable_sortIPN12_GLOBAL__N_119SynthesizeIvarChunkEN9__gnu_cxx5__ops15_Iter_less_iterEEvT_S6_T0_(ptr noundef %0, ptr noundef %24)
  tail call fastcc void @_ZSt21__inplace_stable_sortIPN12_GLOBAL__N_119SynthesizeIvarChunkEN9__gnu_cxx5__ops15_Iter_less_iterEEvT_S6_T0_(ptr noundef %24, ptr noundef %1)
  %25 = ptrtoint ptr %24 to i64
  %26 = sub i64 %4, %25
  %27 = ashr exact i64 %26, 4
  tail call fastcc void @_ZSt22__merge_without_bufferIPN12_GLOBAL__N_119SynthesizeIvarChunkElN9__gnu_cxx5__ops15_Iter_less_iterEEvT_S6_S6_T0_S7_T1_(ptr noundef %0, ptr noundef %24, ptr noundef %1, i64 noundef %23, i64 noundef %27)
  br label %common.ret18
}